Archive member included to satisfy reference by file (symbol)

/opt/riscv/bin/../lib/gcc/riscv64-unknown-elf/7.2.0/../../../../riscv64-unknown-elf/lib/rv32im/ilp32/libc.a(lib_a-memcpy.o)
                              build/src/dhry_1.o (memcpy)
/opt/riscv/bin/../lib/gcc/riscv64-unknown-elf/7.2.0/../../../../riscv64-unknown-elf/lib/rv32im/ilp32/libc.a(lib_a-strcmp.o)
                              build/src/dhry_2.o (strcmp)
/opt/riscv/bin/../lib/gcc/riscv64-unknown-elf/7.2.0/rv32im/ilp32/libgcc.a(divdf3.o)
                              build/src/dhry_1.o (__divdf3)
/opt/riscv/bin/../lib/gcc/riscv64-unknown-elf/7.2.0/rv32im/ilp32/libgcc.a(muldf3.o)
                              build/src/dhry_1.o (__muldf3)
/opt/riscv/bin/../lib/gcc/riscv64-unknown-elf/7.2.0/rv32im/ilp32/libgcc.a(divsf3.o)
                              build/src/dhry_1.o (__divsf3)
/opt/riscv/bin/../lib/gcc/riscv64-unknown-elf/7.2.0/rv32im/ilp32/libgcc.a(mulsf3.o)
                              build/src/dhry_1.o (__mulsf3)
/opt/riscv/bin/../lib/gcc/riscv64-unknown-elf/7.2.0/rv32im/ilp32/libgcc.a(subsf3.o)
                              build/src/dhry_1.o (__subsf3)
/opt/riscv/bin/../lib/gcc/riscv64-unknown-elf/7.2.0/rv32im/ilp32/libgcc.a(fixsfsi.o)
                              build/src/dhry_1.o (__fixsfsi)
/opt/riscv/bin/../lib/gcc/riscv64-unknown-elf/7.2.0/rv32im/ilp32/libgcc.a(floatsisf.o)
                              build/src/dhry_1.o (__floatsisf)
/opt/riscv/bin/../lib/gcc/riscv64-unknown-elf/7.2.0/rv32im/ilp32/libgcc.a(extendsfdf2.o)
                              build/src/dhry_1.o (__extendsfdf2)
/opt/riscv/bin/../lib/gcc/riscv64-unknown-elf/7.2.0/rv32im/ilp32/libgcc.a(truncdfsf2.o)
                              build/src/dhry_1.o (__truncdfsf2)
/opt/riscv/bin/../lib/gcc/riscv64-unknown-elf/7.2.0/rv32im/ilp32/libgcc.a(_clzsi2.o)
                              /opt/riscv/bin/../lib/gcc/riscv64-unknown-elf/7.2.0/rv32im/ilp32/libgcc.a(divdf3.o) (__clzsi2)
/opt/riscv/bin/../lib/gcc/riscv64-unknown-elf/7.2.0/rv32im/ilp32/libgcc.a(_clz.o)
                              /opt/riscv/bin/../lib/gcc/riscv64-unknown-elf/7.2.0/rv32im/ilp32/libgcc.a(_clzsi2.o) (__clz_tab)

Memory Configuration

Name             Origin             Length             Attributes
onChipRam        0x0000000080000000 0x0000000000001000 w !xr
sdram            0x0000000040000000 0x0000000004000000 w !xr
*default*        0x0000000000000000 0xffffffffffffffff

Linker script and memory map

LOAD build/src/main.o
LOAD build/src/dhry_1.o
LOAD build/src/dhry_2.o
LOAD build/src/crt.o
LOAD build/src/stdlib.o
LOAD /opt/riscv/bin/../lib/gcc/riscv64-unknown-elf/7.2.0/../../../../riscv64-unknown-elf/lib/rv32im/ilp32/libc.a
LOAD /opt/riscv/bin/../lib/gcc/riscv64-unknown-elf/7.2.0/../../../../riscv64-unknown-elf/lib/rv32im/ilp32/libc.a
LOAD /opt/riscv/bin/../lib/gcc/riscv64-unknown-elf/7.2.0/rv32im/ilp32/libgcc.a
                0x0000000000000800                _stack_size = 0x800
                0x0000000000000000                _heap_size = 0x0

.vector         0x0000000080000000      0x138
 *crt.o(.text)
 .text          0x0000000080000000      0x138 build/src/crt.o
                0x0000000080000000                crtStart
                0x0000000080000020                trap_entry

.memory         0x0000000040000000     0x2c4c
 *(.text)
 .text          0x0000000040000000       0x4c build/src/main.o
                0x000000004000003c                irqCallback
                0x0000000040000040                clock
 .text          0x000000004000004c      0x938 build/src/dhry_1.o
                0x000000004000004c                Proc_2
                0x0000000040000074                Proc_3
                0x0000000040000098                Proc_1
                0x00000000400001f4                Proc_4
                0x0000000040000218                Proc_5
                0x0000000040000228                main2
 .text          0x0000000040000984      0x1c0 build/src/dhry_2.o
                0x0000000040000984                Proc_7
                0x0000000040000994                Proc_8
                0x00000000400009f8                Func_1
                0x0000000040000a18                Func_2
                0x0000000040000a78                Func_3
                0x0000000040000a84                Proc_6
 .text          0x0000000040000b44      0x288 build/src/stdlib.o
                0x0000000040000b88                putchar
                0x0000000040000c4c                malloc
                0x0000000040000c74                printf
                0x0000000040000d88                puts
 .text          0x0000000040000dcc       0xe8 /opt/riscv/bin/../lib/gcc/riscv64-unknown-elf/7.2.0/../../../../riscv64-unknown-elf/lib/rv32im/ilp32/libc.a(lib_a-memcpy.o)
                0x0000000040000dcc                memcpy
 .text          0x0000000040000eb4      0x17c /opt/riscv/bin/../lib/gcc/riscv64-unknown-elf/7.2.0/../../../../riscv64-unknown-elf/lib/rv32im/ilp32/libc.a(lib_a-strcmp.o)
                0x0000000040000eb4                strcmp
 .text          0x0000000040001030      0x6e0 /opt/riscv/bin/../lib/gcc/riscv64-unknown-elf/7.2.0/rv32im/ilp32/libgcc.a(divdf3.o)
                0x0000000040001030                __divdf3
 .text          0x0000000040001710      0x5dc /opt/riscv/bin/../lib/gcc/riscv64-unknown-elf/7.2.0/rv32im/ilp32/libgcc.a(muldf3.o)
                0x0000000040001710                __muldf3
 .text          0x0000000040001cec      0x340 /opt/riscv/bin/../lib/gcc/riscv64-unknown-elf/7.2.0/rv32im/ilp32/libgcc.a(divsf3.o)
                0x0000000040001cec                __divsf3
 .text          0x000000004000202c      0x324 /opt/riscv/bin/../lib/gcc/riscv64-unknown-elf/7.2.0/rv32im/ilp32/libgcc.a(mulsf3.o)
                0x000000004000202c                __mulsf3
 .text          0x0000000040002350      0x478 /opt/riscv/bin/../lib/gcc/riscv64-unknown-elf/7.2.0/rv32im/ilp32/libgcc.a(subsf3.o)
                0x0000000040002350                __subsf3
 .text          0x00000000400027c8       0x70 /opt/riscv/bin/../lib/gcc/riscv64-unknown-elf/7.2.0/rv32im/ilp32/libgcc.a(fixsfsi.o)
                0x00000000400027c8                __fixsfsi
 .text          0x0000000040002838      0x124 /opt/riscv/bin/../lib/gcc/riscv64-unknown-elf/7.2.0/rv32im/ilp32/libgcc.a(floatsisf.o)
                0x0000000040002838                __floatsisf
 .text          0x000000004000295c      0x10c /opt/riscv/bin/../lib/gcc/riscv64-unknown-elf/7.2.0/rv32im/ilp32/libgcc.a(extendsfdf2.o)
                0x000000004000295c                __extendsfdf2
 .text          0x0000000040002a68      0x198 /opt/riscv/bin/../lib/gcc/riscv64-unknown-elf/7.2.0/rv32im/ilp32/libgcc.a(truncdfsf2.o)
                0x0000000040002a68                __truncdfsf2
 .text          0x0000000040002c00       0x4c /opt/riscv/bin/../lib/gcc/riscv64-unknown-elf/7.2.0/rv32im/ilp32/libgcc.a(_clzsi2.o)
                0x0000000040002c00                __clzsi2
 .text          0x0000000040002c4c        0x0 /opt/riscv/bin/../lib/gcc/riscv64-unknown-elf/7.2.0/rv32im/ilp32/libgcc.a(_clz.o)
                0x0000000040002c4c                end = .

.text.startup   0x0000000040002c4c       0x5c
 .text.startup  0x0000000040002c4c       0x5c build/src/main.o
                0x0000000040002c4c                main

.rodata         0x0000000040002ca8      0x7b8
 *(.rdata)
 *(.rodata .rodata.*)
 .rodata.str1.4
                0x0000000040002ca8      0x5c8 build/src/dhry_1.o
                                        0x5c7 (size before relaxing)
 .rodata        0x0000000040003270       0x3c /opt/riscv/bin/../lib/gcc/riscv64-unknown-elf/7.2.0/rv32im/ilp32/libgcc.a(divdf3.o)
 .rodata        0x00000000400032ac       0x3c /opt/riscv/bin/../lib/gcc/riscv64-unknown-elf/7.2.0/rv32im/ilp32/libgcc.a(muldf3.o)
 .rodata        0x00000000400032e8       0x3c /opt/riscv/bin/../lib/gcc/riscv64-unknown-elf/7.2.0/rv32im/ilp32/libgcc.a(divsf3.o)
 .rodata        0x0000000040003324       0x3c /opt/riscv/bin/../lib/gcc/riscv64-unknown-elf/7.2.0/rv32im/ilp32/libgcc.a(mulsf3.o)
 .rodata        0x0000000040003360      0x100 /opt/riscv/bin/../lib/gcc/riscv64-unknown-elf/7.2.0/rv32im/ilp32/libgcc.a(_clz.o)
                0x0000000040003360                __clz_tab
 *(.gnu.linkonce.r.*)

.rela.dyn       0x0000000040003460        0x0
 .rela.text.startup
                0x0000000040003460        0x0 build/src/main.o
 .rela.text     0x0000000040003460        0x0 build/src/main.o

.ctors          0x0000000040003460        0x0
                0x0000000040003460                . = ALIGN (0x4)
                0x0000000040003460                _ctors_start = .
 *(.init_array*)
 *(SORT(.ctors.*))
 *(.ctors)
                0x0000000040003460                . = ALIGN (0x4)
                0x0000000040003460                _ctors_end = .

.data           0x0000000040003460       0x1c
 *(.rdata)
 *(.rodata .rodata.*)
 *(.gnu.linkonce.r.*)
 *(.data .data.*)
 .data          0x0000000040003460        0x0 build/src/main.o
 .data          0x0000000040003460        0x0 build/src/dhry_1.o
 .data          0x0000000040003460        0x0 build/src/dhry_2.o
 .data          0x0000000040003460        0x0 build/src/crt.o
 .data          0x0000000040003460        0x0 build/src/stdlib.o
 .data          0x0000000040003460        0x0 /opt/riscv/bin/../lib/gcc/riscv64-unknown-elf/7.2.0/../../../../riscv64-unknown-elf/lib/rv32im/ilp32/libc.a(lib_a-memcpy.o)
 .data          0x0000000040003460        0x0 /opt/riscv/bin/../lib/gcc/riscv64-unknown-elf/7.2.0/../../../../riscv64-unknown-elf/lib/rv32im/ilp32/libc.a(lib_a-strcmp.o)
 .data          0x0000000040003460        0x0 /opt/riscv/bin/../lib/gcc/riscv64-unknown-elf/7.2.0/rv32im/ilp32/libgcc.a(divdf3.o)
 .data          0x0000000040003460        0x0 /opt/riscv/bin/../lib/gcc/riscv64-unknown-elf/7.2.0/rv32im/ilp32/libgcc.a(muldf3.o)
 .data          0x0000000040003460        0x0 /opt/riscv/bin/../lib/gcc/riscv64-unknown-elf/7.2.0/rv32im/ilp32/libgcc.a(divsf3.o)
 .data          0x0000000040003460        0x0 /opt/riscv/bin/../lib/gcc/riscv64-unknown-elf/7.2.0/rv32im/ilp32/libgcc.a(mulsf3.o)
 .data          0x0000000040003460        0x0 /opt/riscv/bin/../lib/gcc/riscv64-unknown-elf/7.2.0/rv32im/ilp32/libgcc.a(subsf3.o)
 .data          0x0000000040003460        0x0 /opt/riscv/bin/../lib/gcc/riscv64-unknown-elf/7.2.0/rv32im/ilp32/libgcc.a(fixsfsi.o)
 .data          0x0000000040003460        0x0 /opt/riscv/bin/../lib/gcc/riscv64-unknown-elf/7.2.0/rv32im/ilp32/libgcc.a(floatsisf.o)
 .data          0x0000000040003460        0x0 /opt/riscv/bin/../lib/gcc/riscv64-unknown-elf/7.2.0/rv32im/ilp32/libgcc.a(extendsfdf2.o)
 .data          0x0000000040003460        0x0 /opt/riscv/bin/../lib/gcc/riscv64-unknown-elf/7.2.0/rv32im/ilp32/libgcc.a(truncdfsf2.o)
 .data          0x0000000040003460        0x0 /opt/riscv/bin/../lib/gcc/riscv64-unknown-elf/7.2.0/rv32im/ilp32/libgcc.a(_clzsi2.o)
 .data          0x0000000040003460        0x0 /opt/riscv/bin/../lib/gcc/riscv64-unknown-elf/7.2.0/rv32im/ilp32/libgcc.a(_clz.o)
 *(.gnu.linkonce.d.*)
                0x0000000040003460                . = ALIGN (0x8)
                0x0000000040003c60                PROVIDE (__global_pointer$, (. + 0x800))
 *(.sdata .sdata.*)
 *(.gnu.linkonce.s.*)
                0x0000000040003460                . = ALIGN (0x8)
 *(.srodata.cst16)
 *(.srodata.cst8)
 .srodata.cst8  0x0000000040003460       0x10 build/src/dhry_1.o
 *(.srodata.cst4)
 .srodata.cst4  0x0000000040003470        0xc build/src/dhry_1.o
 *(.srodata.cst2)
 *(.srodata .srodata.*)

.bss            0x000000004000347c     0x2c08
                0x000000004000347c                . = ALIGN (0x4)
                0x000000004000347c                _bss_start = .
 *(.sbss*)
 .sbss          0x000000004000347c       0x2c build/src/dhry_1.o
                0x000000004000347c                Dhrystones_Per_Second
                0x0000000040003480                Microseconds
                0x0000000040003484                User_Time
                0x0000000040003488                End_Time
                0x000000004000348c                Begin_Time
                0x0000000040003490                Reg
                0x0000000040003494                Ch_2_Glob
                0x0000000040003495                Ch_1_Glob
                0x0000000040003498                Bool_Glob
                0x000000004000349c                Int_Glob
                0x00000000400034a0                Next_Ptr_Glob
                0x00000000400034a4                Ptr_Glob
 .sbss          0x00000000400034a8        0x4 build/src/stdlib.o
                0x00000000400034a8                heap_memory_used
 *(.gnu.linkonce.sb.*)
 *(.bss .bss.*)
 .bss           0x00000000400034ac        0x0 build/src/main.o
 .bss           0x00000000400034ac     0x27d8 build/src/dhry_1.o
                0x00000000400034ac                Arr_1_Glob
                0x0000000040003574                Arr_2_Glob
 .bss           0x0000000040005c84        0x0 build/src/dhry_2.o
 .bss           0x0000000040005c84        0x0 build/src/crt.o
 .bss           0x0000000040005c84      0x400 build/src/stdlib.o
                0x0000000040005c84                heap_memory
 .bss           0x0000000040006084        0x0 /opt/riscv/bin/../lib/gcc/riscv64-unknown-elf/7.2.0/../../../../riscv64-unknown-elf/lib/rv32im/ilp32/libc.a(lib_a-memcpy.o)
 .bss           0x0000000040006084        0x0 /opt/riscv/bin/../lib/gcc/riscv64-unknown-elf/7.2.0/../../../../riscv64-unknown-elf/lib/rv32im/ilp32/libc.a(lib_a-strcmp.o)
 .bss           0x0000000040006084        0x0 /opt/riscv/bin/../lib/gcc/riscv64-unknown-elf/7.2.0/rv32im/ilp32/libgcc.a(divdf3.o)
 .bss           0x0000000040006084        0x0 /opt/riscv/bin/../lib/gcc/riscv64-unknown-elf/7.2.0/rv32im/ilp32/libgcc.a(muldf3.o)
 .bss           0x0000000040006084        0x0 /opt/riscv/bin/../lib/gcc/riscv64-unknown-elf/7.2.0/rv32im/ilp32/libgcc.a(divsf3.o)
 .bss           0x0000000040006084        0x0 /opt/riscv/bin/../lib/gcc/riscv64-unknown-elf/7.2.0/rv32im/ilp32/libgcc.a(mulsf3.o)
 .bss           0x0000000040006084        0x0 /opt/riscv/bin/../lib/gcc/riscv64-unknown-elf/7.2.0/rv32im/ilp32/libgcc.a(subsf3.o)
 .bss           0x0000000040006084        0x0 /opt/riscv/bin/../lib/gcc/riscv64-unknown-elf/7.2.0/rv32im/ilp32/libgcc.a(fixsfsi.o)
 .bss           0x0000000040006084        0x0 /opt/riscv/bin/../lib/gcc/riscv64-unknown-elf/7.2.0/rv32im/ilp32/libgcc.a(floatsisf.o)
 .bss           0x0000000040006084        0x0 /opt/riscv/bin/../lib/gcc/riscv64-unknown-elf/7.2.0/rv32im/ilp32/libgcc.a(extendsfdf2.o)
 .bss           0x0000000040006084        0x0 /opt/riscv/bin/../lib/gcc/riscv64-unknown-elf/7.2.0/rv32im/ilp32/libgcc.a(truncdfsf2.o)
 .bss           0x0000000040006084        0x0 /opt/riscv/bin/../lib/gcc/riscv64-unknown-elf/7.2.0/rv32im/ilp32/libgcc.a(_clzsi2.o)
 .bss           0x0000000040006084        0x0 /opt/riscv/bin/../lib/gcc/riscv64-unknown-elf/7.2.0/rv32im/ilp32/libgcc.a(_clz.o)
 *(.gnu.linkonce.b.*)
 *(COMMON)
                0x0000000040006084                . = ALIGN (0x4)
                0x0000000040006084                _bss_end = .

.noinit         0x0000000040006084        0x0
                0x0000000040006084                . = ALIGN (0x4)
 *(.noinit .noinit.*)
                0x0000000040006084                . = ALIGN (0x4)

._user_heap     0x0000000040006084        0x4
                0x0000000040006088                . = ALIGN (0x8)
 *fill*         0x0000000040006084        0x4 
                [!provide]                        PROVIDE (end, .)
                [!provide]                        PROVIDE (_end, .)
                [!provide]                        PROVIDE (_heap_start, .)
                0x0000000040006088                . = (. + _heap_size)
                0x0000000040006088                . = ALIGN (0x8)
                [!provide]                        PROVIDE (_heap_end, .)

._stack         0x0000000080000138      0x808
                0x0000000080000140                . = ALIGN (0x10)
 *fill*         0x0000000080000138        0x8 
                [!provide]                        PROVIDE (_stack_end, .)
                0x0000000080000940                . = (. + _stack_size)
 *fill*         0x0000000080000140      0x800 
                0x0000000080000940                . = ALIGN (0x10)
                0x0000000080000940                PROVIDE (_stack_start, .)
OUTPUT(build/dhrystone.elf elf32-littleriscv)

.debug_info     0x0000000000000000     0x6cdc
 .debug_info    0x0000000000000000      0xcb4 build/src/main.o
 .debug_info    0x0000000000000cb4     0x179e build/src/dhry_1.o
 .debug_info    0x0000000000002452      0xccf build/src/dhry_2.o
 .debug_info    0x0000000000003121       0x26 build/src/crt.o
 .debug_info    0x0000000000003147      0x48f build/src/stdlib.o
 .debug_info    0x00000000000035d6      0x6d6 /opt/riscv/bin/../lib/gcc/riscv64-unknown-elf/7.2.0/rv32im/ilp32/libgcc.a(divdf3.o)
 .debug_info    0x0000000000003cac      0x70d /opt/riscv/bin/../lib/gcc/riscv64-unknown-elf/7.2.0/rv32im/ilp32/libgcc.a(muldf3.o)
 .debug_info    0x00000000000043b9      0x389 /opt/riscv/bin/../lib/gcc/riscv64-unknown-elf/7.2.0/rv32im/ilp32/libgcc.a(divsf3.o)
 .debug_info    0x0000000000004742      0x377 /opt/riscv/bin/../lib/gcc/riscv64-unknown-elf/7.2.0/rv32im/ilp32/libgcc.a(mulsf3.o)
 .debug_info    0x0000000000004ab9      0x321 /opt/riscv/bin/../lib/gcc/riscv64-unknown-elf/7.2.0/rv32im/ilp32/libgcc.a(subsf3.o)
 .debug_info    0x0000000000004dda      0x1df /opt/riscv/bin/../lib/gcc/riscv64-unknown-elf/7.2.0/rv32im/ilp32/libgcc.a(fixsfsi.o)
 .debug_info    0x0000000000004fb9      0x23f /opt/riscv/bin/../lib/gcc/riscv64-unknown-elf/7.2.0/rv32im/ilp32/libgcc.a(floatsisf.o)
 .debug_info    0x00000000000051f8      0x289 /opt/riscv/bin/../lib/gcc/riscv64-unknown-elf/7.2.0/rv32im/ilp32/libgcc.a(extendsfdf2.o)
 .debug_info    0x0000000000005481      0x2ba /opt/riscv/bin/../lib/gcc/riscv64-unknown-elf/7.2.0/rv32im/ilp32/libgcc.a(truncdfsf2.o)
 .debug_info    0x000000000000573b      0xb04 /opt/riscv/bin/../lib/gcc/riscv64-unknown-elf/7.2.0/rv32im/ilp32/libgcc.a(_clzsi2.o)
 .debug_info    0x000000000000623f      0xa9d /opt/riscv/bin/../lib/gcc/riscv64-unknown-elf/7.2.0/rv32im/ilp32/libgcc.a(_clz.o)

.debug_abbrev   0x0000000000000000     0x1a97
 .debug_abbrev  0x0000000000000000      0x2a7 build/src/main.o
 .debug_abbrev  0x00000000000002a7      0x326 build/src/dhry_1.o
 .debug_abbrev  0x00000000000005cd      0x26b build/src/dhry_2.o
 .debug_abbrev  0x0000000000000838       0x14 build/src/crt.o
 .debug_abbrev  0x000000000000084c      0x1fc build/src/stdlib.o
 .debug_abbrev  0x0000000000000a48      0x167 /opt/riscv/bin/../lib/gcc/riscv64-unknown-elf/7.2.0/rv32im/ilp32/libgcc.a(divdf3.o)
 .debug_abbrev  0x0000000000000baf      0x177 /opt/riscv/bin/../lib/gcc/riscv64-unknown-elf/7.2.0/rv32im/ilp32/libgcc.a(muldf3.o)
 .debug_abbrev  0x0000000000000d26      0x151 /opt/riscv/bin/../lib/gcc/riscv64-unknown-elf/7.2.0/rv32im/ilp32/libgcc.a(divsf3.o)
 .debug_abbrev  0x0000000000000e77      0x153 /opt/riscv/bin/../lib/gcc/riscv64-unknown-elf/7.2.0/rv32im/ilp32/libgcc.a(mulsf3.o)
 .debug_abbrev  0x0000000000000fca      0x16d /opt/riscv/bin/../lib/gcc/riscv64-unknown-elf/7.2.0/rv32im/ilp32/libgcc.a(subsf3.o)
 .debug_abbrev  0x0000000000001137      0x168 /opt/riscv/bin/../lib/gcc/riscv64-unknown-elf/7.2.0/rv32im/ilp32/libgcc.a(fixsfsi.o)
 .debug_abbrev  0x000000000000129f      0x176 /opt/riscv/bin/../lib/gcc/riscv64-unknown-elf/7.2.0/rv32im/ilp32/libgcc.a(floatsisf.o)
 .debug_abbrev  0x0000000000001415      0x15d /opt/riscv/bin/../lib/gcc/riscv64-unknown-elf/7.2.0/rv32im/ilp32/libgcc.a(extendsfdf2.o)
 .debug_abbrev  0x0000000000001572      0x157 /opt/riscv/bin/../lib/gcc/riscv64-unknown-elf/7.2.0/rv32im/ilp32/libgcc.a(truncdfsf2.o)
 .debug_abbrev  0x00000000000016c9      0x210 /opt/riscv/bin/../lib/gcc/riscv64-unknown-elf/7.2.0/rv32im/ilp32/libgcc.a(_clzsi2.o)
 .debug_abbrev  0x00000000000018d9      0x1be /opt/riscv/bin/../lib/gcc/riscv64-unknown-elf/7.2.0/rv32im/ilp32/libgcc.a(_clz.o)

.debug_aranges  0x0000000000000000      0x200
 .debug_aranges
                0x0000000000000000       0x28 build/src/main.o
 .debug_aranges
                0x0000000000000028       0x20 build/src/dhry_1.o
 .debug_aranges
                0x0000000000000048       0x20 build/src/dhry_2.o
 .debug_aranges
                0x0000000000000068       0x20 build/src/crt.o
 .debug_aranges
                0x0000000000000088       0x20 build/src/stdlib.o
 .debug_aranges
                0x00000000000000a8       0x20 /opt/riscv/bin/../lib/gcc/riscv64-unknown-elf/7.2.0/rv32im/ilp32/libgcc.a(divdf3.o)
 .debug_aranges
                0x00000000000000c8       0x20 /opt/riscv/bin/../lib/gcc/riscv64-unknown-elf/7.2.0/rv32im/ilp32/libgcc.a(muldf3.o)
 .debug_aranges
                0x00000000000000e8       0x20 /opt/riscv/bin/../lib/gcc/riscv64-unknown-elf/7.2.0/rv32im/ilp32/libgcc.a(divsf3.o)
 .debug_aranges
                0x0000000000000108       0x20 /opt/riscv/bin/../lib/gcc/riscv64-unknown-elf/7.2.0/rv32im/ilp32/libgcc.a(mulsf3.o)
 .debug_aranges
                0x0000000000000128       0x20 /opt/riscv/bin/../lib/gcc/riscv64-unknown-elf/7.2.0/rv32im/ilp32/libgcc.a(subsf3.o)
 .debug_aranges
                0x0000000000000148       0x20 /opt/riscv/bin/../lib/gcc/riscv64-unknown-elf/7.2.0/rv32im/ilp32/libgcc.a(fixsfsi.o)
 .debug_aranges
                0x0000000000000168       0x20 /opt/riscv/bin/../lib/gcc/riscv64-unknown-elf/7.2.0/rv32im/ilp32/libgcc.a(floatsisf.o)
 .debug_aranges
                0x0000000000000188       0x20 /opt/riscv/bin/../lib/gcc/riscv64-unknown-elf/7.2.0/rv32im/ilp32/libgcc.a(extendsfdf2.o)
 .debug_aranges
                0x00000000000001a8       0x20 /opt/riscv/bin/../lib/gcc/riscv64-unknown-elf/7.2.0/rv32im/ilp32/libgcc.a(truncdfsf2.o)
 .debug_aranges
                0x00000000000001c8       0x20 /opt/riscv/bin/../lib/gcc/riscv64-unknown-elf/7.2.0/rv32im/ilp32/libgcc.a(_clzsi2.o)
 .debug_aranges
                0x00000000000001e8       0x18 /opt/riscv/bin/../lib/gcc/riscv64-unknown-elf/7.2.0/rv32im/ilp32/libgcc.a(_clz.o)

.debug_ranges   0x0000000000000000      0x6f8
 .debug_ranges  0x0000000000000000       0x18 build/src/main.o
 .debug_ranges  0x0000000000000018       0xa0 build/src/dhry_1.o
 .debug_ranges  0x00000000000000b8       0x18 build/src/dhry_2.o
 .debug_ranges  0x00000000000000d0      0x140 /opt/riscv/bin/../lib/gcc/riscv64-unknown-elf/7.2.0/rv32im/ilp32/libgcc.a(divdf3.o)
 .debug_ranges  0x0000000000000210      0x178 /opt/riscv/bin/../lib/gcc/riscv64-unknown-elf/7.2.0/rv32im/ilp32/libgcc.a(muldf3.o)
 .debug_ranges  0x0000000000000388       0xb8 /opt/riscv/bin/../lib/gcc/riscv64-unknown-elf/7.2.0/rv32im/ilp32/libgcc.a(divsf3.o)
 .debug_ranges  0x0000000000000440       0xc0 /opt/riscv/bin/../lib/gcc/riscv64-unknown-elf/7.2.0/rv32im/ilp32/libgcc.a(mulsf3.o)
 .debug_ranges  0x0000000000000500      0x120 /opt/riscv/bin/../lib/gcc/riscv64-unknown-elf/7.2.0/rv32im/ilp32/libgcc.a(subsf3.o)
 .debug_ranges  0x0000000000000620       0x18 /opt/riscv/bin/../lib/gcc/riscv64-unknown-elf/7.2.0/rv32im/ilp32/libgcc.a(fixsfsi.o)
 .debug_ranges  0x0000000000000638       0x48 /opt/riscv/bin/../lib/gcc/riscv64-unknown-elf/7.2.0/rv32im/ilp32/libgcc.a(floatsisf.o)
 .debug_ranges  0x0000000000000680       0x20 /opt/riscv/bin/../lib/gcc/riscv64-unknown-elf/7.2.0/rv32im/ilp32/libgcc.a(extendsfdf2.o)
 .debug_ranges  0x00000000000006a0       0x40 /opt/riscv/bin/../lib/gcc/riscv64-unknown-elf/7.2.0/rv32im/ilp32/libgcc.a(truncdfsf2.o)
 .debug_ranges  0x00000000000006e0       0x18 /opt/riscv/bin/../lib/gcc/riscv64-unknown-elf/7.2.0/rv32im/ilp32/libgcc.a(_clzsi2.o)

.debug_line     0x0000000000000000     0x2f92
 .debug_line    0x0000000000000000      0x286 build/src/main.o
 .debug_line    0x0000000000000286      0x740 build/src/dhry_1.o
 .debug_line    0x00000000000009c6      0x2a8 build/src/dhry_2.o
 .debug_line    0x0000000000000c6e      0x1e6 build/src/crt.o
 .debug_line    0x0000000000000e54      0x2ee build/src/stdlib.o
 .debug_line    0x0000000000001142      0x4c8 /opt/riscv/bin/../lib/gcc/riscv64-unknown-elf/7.2.0/rv32im/ilp32/libgcc.a(divdf3.o)
 .debug_line    0x000000000000160a      0x34a /opt/riscv/bin/../lib/gcc/riscv64-unknown-elf/7.2.0/rv32im/ilp32/libgcc.a(muldf3.o)
 .debug_line    0x0000000000001954      0x291 /opt/riscv/bin/../lib/gcc/riscv64-unknown-elf/7.2.0/rv32im/ilp32/libgcc.a(divsf3.o)
 .debug_line    0x0000000000001be5      0x25a /opt/riscv/bin/../lib/gcc/riscv64-unknown-elf/7.2.0/rv32im/ilp32/libgcc.a(mulsf3.o)
 .debug_line    0x0000000000001e3f      0x4dd /opt/riscv/bin/../lib/gcc/riscv64-unknown-elf/7.2.0/rv32im/ilp32/libgcc.a(subsf3.o)
 .debug_line    0x000000000000231c      0x124 /opt/riscv/bin/../lib/gcc/riscv64-unknown-elf/7.2.0/rv32im/ilp32/libgcc.a(fixsfsi.o)
 .debug_line    0x0000000000002440      0x16b /opt/riscv/bin/../lib/gcc/riscv64-unknown-elf/7.2.0/rv32im/ilp32/libgcc.a(floatsisf.o)
 .debug_line    0x00000000000025ab      0x167 /opt/riscv/bin/../lib/gcc/riscv64-unknown-elf/7.2.0/rv32im/ilp32/libgcc.a(extendsfdf2.o)
 .debug_line    0x0000000000002712      0x1e4 /opt/riscv/bin/../lib/gcc/riscv64-unknown-elf/7.2.0/rv32im/ilp32/libgcc.a(truncdfsf2.o)
 .debug_line    0x00000000000028f6      0x372 /opt/riscv/bin/../lib/gcc/riscv64-unknown-elf/7.2.0/rv32im/ilp32/libgcc.a(_clzsi2.o)
 .debug_line    0x0000000000002c68      0x32a /opt/riscv/bin/../lib/gcc/riscv64-unknown-elf/7.2.0/rv32im/ilp32/libgcc.a(_clz.o)

.debug_str      0x0000000000000000     0x15d1
 .debug_str     0x0000000000000000      0x6e4 build/src/main.o
                                        0x752 (size before relaxing)
 .debug_str     0x00000000000006e4      0x2a7 build/src/dhry_1.o
                                        0x8d5 (size before relaxing)
 .debug_str     0x000000000000098b       0xed build/src/dhry_2.o
                                        0x77e (size before relaxing)
 .debug_str     0x0000000000000a78       0x2c build/src/crt.o
                                         0x83 (size before relaxing)
 .debug_str     0x0000000000000aa4       0x96 build/src/stdlib.o
                                        0x2db (size before relaxing)
 .debug_str     0x0000000000000b3a      0x39f /opt/riscv/bin/../lib/gcc/riscv64-unknown-elf/7.2.0/rv32im/ilp32/libgcc.a(divdf3.o)
                                        0x425 (size before relaxing)
 .debug_str     0x0000000000000ed9      0x161 /opt/riscv/bin/../lib/gcc/riscv64-unknown-elf/7.2.0/rv32im/ilp32/libgcc.a(muldf3.o)
                                        0x47d (size before relaxing)
 .debug_str     0x000000000000103a      0x11c /opt/riscv/bin/../lib/gcc/riscv64-unknown-elf/7.2.0/rv32im/ilp32/libgcc.a(divsf3.o)
                                        0x390 (size before relaxing)
 .debug_str     0x0000000000001156       0x6e /opt/riscv/bin/../lib/gcc/riscv64-unknown-elf/7.2.0/rv32im/ilp32/libgcc.a(mulsf3.o)
                                        0x34b (size before relaxing)
 .debug_str     0x00000000000011c4      0x10b /opt/riscv/bin/../lib/gcc/riscv64-unknown-elf/7.2.0/rv32im/ilp32/libgcc.a(subsf3.o)
                                        0x326 (size before relaxing)
 .debug_str     0x00000000000012cf       0x59 /opt/riscv/bin/../lib/gcc/riscv64-unknown-elf/7.2.0/rv32im/ilp32/libgcc.a(fixsfsi.o)
                                        0x268 (size before relaxing)
 .debug_str     0x0000000000001328       0x6f /opt/riscv/bin/../lib/gcc/riscv64-unknown-elf/7.2.0/rv32im/ilp32/libgcc.a(floatsisf.o)
                                        0x2f1 (size before relaxing)
 .debug_str     0x0000000000001397       0x53 /opt/riscv/bin/../lib/gcc/riscv64-unknown-elf/7.2.0/rv32im/ilp32/libgcc.a(extendsfdf2.o)
                                        0x29e (size before relaxing)
 .debug_str     0x00000000000013ea       0x44 /opt/riscv/bin/../lib/gcc/riscv64-unknown-elf/7.2.0/rv32im/ilp32/libgcc.a(truncdfsf2.o)
                                        0x2fc (size before relaxing)
 .debug_str     0x000000000000142e      0x1a3 /opt/riscv/bin/../lib/gcc/riscv64-unknown-elf/7.2.0/rv32im/ilp32/libgcc.a(_clzsi2.o)
                                        0x7b0 (size before relaxing)
 .debug_str     0x00000000000015d1      0x793 /opt/riscv/bin/../lib/gcc/riscv64-unknown-elf/7.2.0/rv32im/ilp32/libgcc.a(_clz.o)

.comment        0x0000000000000000       0x11
 .comment       0x0000000000000000       0x11 build/src/main.o
                                         0x12 (size before relaxing)
 .comment       0x0000000000000011       0x12 build/src/dhry_1.o
 .comment       0x0000000000000011       0x12 build/src/dhry_2.o
 .comment       0x0000000000000011       0x12 build/src/stdlib.o
 .comment       0x0000000000000011       0x12 /opt/riscv/bin/../lib/gcc/riscv64-unknown-elf/7.2.0/../../../../riscv64-unknown-elf/lib/rv32im/ilp32/libc.a(lib_a-memcpy.o)
 .comment       0x0000000000000011       0x12 /opt/riscv/bin/../lib/gcc/riscv64-unknown-elf/7.2.0/rv32im/ilp32/libgcc.a(divdf3.o)
 .comment       0x0000000000000011       0x12 /opt/riscv/bin/../lib/gcc/riscv64-unknown-elf/7.2.0/rv32im/ilp32/libgcc.a(muldf3.o)
 .comment       0x0000000000000011       0x12 /opt/riscv/bin/../lib/gcc/riscv64-unknown-elf/7.2.0/rv32im/ilp32/libgcc.a(divsf3.o)
 .comment       0x0000000000000011       0x12 /opt/riscv/bin/../lib/gcc/riscv64-unknown-elf/7.2.0/rv32im/ilp32/libgcc.a(mulsf3.o)
 .comment       0x0000000000000011       0x12 /opt/riscv/bin/../lib/gcc/riscv64-unknown-elf/7.2.0/rv32im/ilp32/libgcc.a(subsf3.o)
 .comment       0x0000000000000011       0x12 /opt/riscv/bin/../lib/gcc/riscv64-unknown-elf/7.2.0/rv32im/ilp32/libgcc.a(fixsfsi.o)
 .comment       0x0000000000000011       0x12 /opt/riscv/bin/../lib/gcc/riscv64-unknown-elf/7.2.0/rv32im/ilp32/libgcc.a(floatsisf.o)
 .comment       0x0000000000000011       0x12 /opt/riscv/bin/../lib/gcc/riscv64-unknown-elf/7.2.0/rv32im/ilp32/libgcc.a(extendsfdf2.o)
 .comment       0x0000000000000011       0x12 /opt/riscv/bin/../lib/gcc/riscv64-unknown-elf/7.2.0/rv32im/ilp32/libgcc.a(truncdfsf2.o)
 .comment       0x0000000000000011       0x12 /opt/riscv/bin/../lib/gcc/riscv64-unknown-elf/7.2.0/rv32im/ilp32/libgcc.a(_clzsi2.o)
 .comment       0x0000000000000011       0x12 /opt/riscv/bin/../lib/gcc/riscv64-unknown-elf/7.2.0/rv32im/ilp32/libgcc.a(_clz.o)

.debug_frame    0x0000000000000000      0x574
 .debug_frame   0x0000000000000000       0x7c build/src/main.o
 .debug_frame   0x000000000000007c       0xe0 build/src/dhry_1.o
 .debug_frame   0x000000000000015c       0xbc build/src/dhry_2.o
 .debug_frame   0x0000000000000218      0x114 build/src/stdlib.o
 .debug_frame   0x000000000000032c       0x54 /opt/riscv/bin/../lib/gcc/riscv64-unknown-elf/7.2.0/rv32im/ilp32/libgcc.a(divdf3.o)
 .debug_frame   0x0000000000000380       0x54 /opt/riscv/bin/../lib/gcc/riscv64-unknown-elf/7.2.0/rv32im/ilp32/libgcc.a(muldf3.o)
 .debug_frame   0x00000000000003d4       0x48 /opt/riscv/bin/../lib/gcc/riscv64-unknown-elf/7.2.0/rv32im/ilp32/libgcc.a(divsf3.o)
 .debug_frame   0x000000000000041c       0x4c /opt/riscv/bin/../lib/gcc/riscv64-unknown-elf/7.2.0/rv32im/ilp32/libgcc.a(mulsf3.o)
 .debug_frame   0x0000000000000468       0x3c /opt/riscv/bin/../lib/gcc/riscv64-unknown-elf/7.2.0/rv32im/ilp32/libgcc.a(subsf3.o)
 .debug_frame   0x00000000000004a4       0x20 /opt/riscv/bin/../lib/gcc/riscv64-unknown-elf/7.2.0/rv32im/ilp32/libgcc.a(fixsfsi.o)
 .debug_frame   0x00000000000004c4       0x38 /opt/riscv/bin/../lib/gcc/riscv64-unknown-elf/7.2.0/rv32im/ilp32/libgcc.a(floatsisf.o)
 .debug_frame   0x00000000000004fc       0x38 /opt/riscv/bin/../lib/gcc/riscv64-unknown-elf/7.2.0/rv32im/ilp32/libgcc.a(extendsfdf2.o)
 .debug_frame   0x0000000000000534       0x20 /opt/riscv/bin/../lib/gcc/riscv64-unknown-elf/7.2.0/rv32im/ilp32/libgcc.a(truncdfsf2.o)
 .debug_frame   0x0000000000000554       0x20 /opt/riscv/bin/../lib/gcc/riscv64-unknown-elf/7.2.0/rv32im/ilp32/libgcc.a(_clzsi2.o)

.debug_loc      0x0000000000000000     0x47d3
 .debug_loc     0x0000000000000000      0x27e build/src/dhry_1.o
 .debug_loc     0x000000000000027e      0x47a build/src/dhry_2.o
 .debug_loc     0x00000000000006f8      0x1b7 build/src/stdlib.o
 .debug_loc     0x00000000000008af     0x102d /opt/riscv/bin/../lib/gcc/riscv64-unknown-elf/7.2.0/rv32im/ilp32/libgcc.a(divdf3.o)
 .debug_loc     0x00000000000018dc      0xdbd /opt/riscv/bin/../lib/gcc/riscv64-unknown-elf/7.2.0/rv32im/ilp32/libgcc.a(muldf3.o)
 .debug_loc     0x0000000000002699      0x724 /opt/riscv/bin/../lib/gcc/riscv64-unknown-elf/7.2.0/rv32im/ilp32/libgcc.a(divsf3.o)
 .debug_loc     0x0000000000002dbd      0x669 /opt/riscv/bin/../lib/gcc/riscv64-unknown-elf/7.2.0/rv32im/ilp32/libgcc.a(mulsf3.o)
 .debug_loc     0x0000000000003426      0xad5 /opt/riscv/bin/../lib/gcc/riscv64-unknown-elf/7.2.0/rv32im/ilp32/libgcc.a(subsf3.o)
 .debug_loc     0x0000000000003efb      0x12d /opt/riscv/bin/../lib/gcc/riscv64-unknown-elf/7.2.0/rv32im/ilp32/libgcc.a(fixsfsi.o)
 .debug_loc     0x0000000000004028      0x187 /opt/riscv/bin/../lib/gcc/riscv64-unknown-elf/7.2.0/rv32im/ilp32/libgcc.a(floatsisf.o)
 .debug_loc     0x00000000000041af      0x24e /opt/riscv/bin/../lib/gcc/riscv64-unknown-elf/7.2.0/rv32im/ilp32/libgcc.a(extendsfdf2.o)
 .debug_loc     0x00000000000043fd      0x36b /opt/riscv/bin/../lib/gcc/riscv64-unknown-elf/7.2.0/rv32im/ilp32/libgcc.a(truncdfsf2.o)
 .debug_loc     0x0000000000004768       0x6b /opt/riscv/bin/../lib/gcc/riscv64-unknown-elf/7.2.0/rv32im/ilp32/libgcc.a(_clzsi2.o)
